target datalayout = "e-m:e-p270:32:32-p271:32:32-p272:64:64-i64:64-i128:128-f80:128-n8:16:32:64-S128"
target triple = "x86_64-pc-linux-gnu"

%struct.ForEachState = type { ptr, i32 }
%struct.List = type { i32, i32, i32, ptr, [0 x %union.ListCell] }
%union.ListCell = type { ptr }
%struct.RangeTblEntry = type { i32, ptr, ptr, i32, i32, i8, i8, i32, i32, ptr, ptr, i8, i32, i32, ptr, ptr, ptr, ptr, ptr, i8, ptr, ptr, ptr, i32, i8, ptr, ptr, ptr, ptr, double, ptr, i8, i8, ptr }
%struct.nameData = type { [64 x i8] }
%struct.Node = type { i32 }
%struct.RelationData = type { %struct.RelFileLocator, ptr, i32, i32, i8, i8, i8, i8, i8, i32, i32, i32, i32, ptr, ptr, i32, %struct.LockInfoData, ptr, ptr, ptr, ptr, ptr, i8, ptr, ptr, ptr, ptr, ptr, ptr, i32, ptr, i8, ptr, ptr, i32, i8, i32, ptr, i8, ptr, ptr, ptr, ptr, ptr, ptr, ptr, i32, ptr, ptr, ptr, ptr, ptr, ptr, ptr, ptr, ptr, ptr, ptr, ptr, ptr, ptr, ptr, ptr, ptr, ptr, ptr, i32, i8, ptr }
%struct.RelFileLocator = type { i32, i32, i32 }
%struct.LockInfoData = type { %struct.LockRelId }
%struct.LockRelId = type { i32, i32 }
%struct.FormData_pg_class = type { i32, %struct.nameData, i32, i32, i32, i32, i32, i32, i32, i32, float, i32, i32, i8, i8, i8, i8, i16, i16, i8, i8, i8, i8, i8, i8, i8, i8, i32, i32, i32 }
%struct.Query = type { i32, i32, i32, i64, i8, ptr, i32, i8, i8, i8, i8, i8, i8, i8, i8, i8, i8, i8, ptr, ptr, ptr, ptr, ptr, i32, ptr, ptr, i32, ptr, ptr, ptr, ptr, ptr, i8, ptr, ptr, ptr, ptr, ptr, ptr, ptr, i32, ptr, ptr, ptr, ptr, i32, i32 }

; Function Attrs: nounwind uwtable
define internal zeroext i1 @isQueryUsingTempRelation_walker(ptr noundef %0, ptr noundef %1) #0 {
  %3 = alloca i1, align 1
  %4 = alloca ptr, align 8
  %5 = alloca ptr, align 8
  %6 = alloca ptr, align 8
  %7 = alloca ptr, align 8
  %8 = alloca %struct.ForEachState, align 8
  %9 = alloca i32, align 4
  %10 = alloca ptr, align 8
  %11 = alloca ptr, align 8
  %12 = alloca i8, align 1
  store ptr %0, ptr %4, align 8
  store ptr %1, ptr %5, align 8
  %13 = load ptr, ptr %4, align 8
  %14 = icmp eq ptr %13, null
  br i1 %14, label %15, label %16

15:                                               ; preds = %2
  store i1 false, ptr %3, align 1
  br label %100

16:                                               ; preds = %2
  %17 = load ptr, ptr %4, align 8
  %18 = getelementptr inbounds nuw %struct.Node, ptr %17, i32 0, i32 0
  %19 = load i32, ptr %18, align 4
  %20 = icmp eq i32 %19, 67
  br i1 %20, label %21, label %96

21:                                               ; preds = %16
  call void @llvm.lifetime.start.p0(i64 8, ptr %6) #8
  %22 = load ptr, ptr %4, align 8
  store ptr %22, ptr %6, align 8
  call void @llvm.lifetime.start.p0(i64 8, ptr %7) #8
  call void @llvm.lifetime.start.p0(i64 16, ptr %8) #8
  %23 = getelementptr inbounds nuw %struct.ForEachState, ptr %8, i32 0, i32 0
  %24 = load ptr, ptr %6, align 8
  %25 = getelementptr inbounds nuw %struct.Query, ptr %24, i32 0, i32 19
  %26 = load ptr, ptr %25, align 8
  store ptr %26, ptr %23, align 8
  %27 = getelementptr inbounds nuw %struct.ForEachState, ptr %8, i32 0, i32 1
  store i32 0, ptr %27, align 8
  %28 = getelementptr i8, ptr %8, i64 12
  call void @llvm.memset.p0.i64(ptr align 4 %28, i8 0, i64 4, i1 false)
  br label %29

29:                                               ; preds = %85, %21
  %30 = getelementptr inbounds nuw %struct.ForEachState, ptr %8, i32 0, i32 0
  %31 = load ptr, ptr %30, align 8
  %32 = icmp ne ptr %31, null
  br i1 %32, label %33, label %50

33:                                               ; preds = %29
  %34 = getelementptr inbounds nuw %struct.ForEachState, ptr %8, i32 0, i32 1
  %35 = load i32, ptr %34, align 8
  %36 = getelementptr inbounds nuw %struct.ForEachState, ptr %8, i32 0, i32 0
  %37 = load ptr, ptr %36, align 8
  %38 = getelementptr inbounds nuw %struct.List, ptr %37, i32 0, i32 1
  %39 = load i32, ptr %38, align 4
  %40 = icmp slt i32 %35, %39
  br i1 %40, label %41, label %50

41:                                               ; preds = %33
  %42 = getelementptr inbounds nuw %struct.ForEachState, ptr %8, i32 0, i32 0
  %43 = load ptr, ptr %42, align 8
  %44 = getelementptr inbounds nuw %struct.List, ptr %43, i32 0, i32 3
  %45 = load ptr, ptr %44, align 8
  %46 = getelementptr inbounds nuw %struct.ForEachState, ptr %8, i32 0, i32 1
  %47 = load i32, ptr %46, align 8
  %48 = sext i32 %47 to i64
  %49 = getelementptr inbounds %union.ListCell, ptr %45, i64 %48
  store ptr %49, ptr %7, align 8
  br label %51

50:                                               ; preds = %33, %29
  store ptr null, ptr %7, align 8
  br label %51

51:                                               ; preds = %50, %41
  %52 = phi i32 [ 1, %41 ], [ 0, %50 ]
  %53 = icmp ne i32 %52, 0
  br i1 %53, label %55, label %54

54:                                               ; preds = %51
  store i32 2, ptr %9, align 4
  br label %89

55:                                               ; preds = %51
  call void @llvm.lifetime.start.p0(i64 8, ptr %10) #8
  %56 = load ptr, ptr %7, align 8
  %57 = load ptr, ptr %56, align 8
  store ptr %57, ptr %10, align 8
  %58 = load ptr, ptr %10, align 8
  %59 = getelementptr inbounds nuw %struct.RangeTblEntry, ptr %58, i32 0, i32 3
  %60 = load i32, ptr %59, align 8
  %61 = icmp eq i32 %60, 0
  br i1 %61, label %62, label %81

62:                                               ; preds = %55
  call void @llvm.lifetime.start.p0(i64 8, ptr %11) #8
  %63 = load ptr, ptr %10, align 8
  %64 = getelementptr inbounds nuw %struct.RangeTblEntry, ptr %63, i32 0, i32 4
  %65 = load i32, ptr %64, align 4
  %66 = call ptr @table_open(i32 noundef %65, i32 noundef 1)
  store ptr %66, ptr %11, align 8
  call void @llvm.lifetime.start.p0(i64 1, ptr %12) #8
  %67 = load ptr, ptr %11, align 8
  %68 = getelementptr inbounds nuw %struct.RelationData, ptr %67, i32 0, i32 13
  %69 = load ptr, ptr %68, align 8
  %70 = getelementptr inbounds nuw %struct.FormData_pg_class, ptr %69, i32 0, i32 15
  %71 = load i8, ptr %70, align 2
  store i8 %71, ptr %12, align 1
  %72 = load ptr, ptr %11, align 8
  call void @table_close(ptr noundef %72, i32 noundef 1)
  %73 = load i8, ptr %12, align 1
  %74 = sext i8 %73 to i32
  %75 = icmp eq i32 %74, 116
  br i1 %75, label %76, label %77

76:                                               ; preds = %62
  store i1 true, ptr %3, align 1
  store i32 1, ptr %9, align 4
  br label %78

77:                                               ; preds = %62
  store i32 0, ptr %9, align 4
  br label %78

78:                                               ; preds = %77, %76
  call void @llvm.lifetime.end.p0(i64 1, ptr %12) #8
  call void @llvm.lifetime.end.p0(i64 8, ptr %11) #8
  %79 = load i32, ptr %9, align 4
  switch i32 %79, label %82 [
    i32 0, label %80
  ]

80:                                               ; preds = %78
  br label %81

81:                                               ; preds = %80, %55
  store i32 0, ptr %9, align 4
  br label %82

82:                                               ; preds = %81, %78
  call void @llvm.lifetime.end.p0(i64 8, ptr %10) #8
  %83 = load i32, ptr %9, align 4
  switch i32 %83, label %89 [
    i32 0, label %84
  ]

84:                                               ; preds = %82
  br label %85

85:                                               ; preds = %84
  %86 = getelementptr inbounds nuw %struct.ForEachState, ptr %8, i32 0, i32 1
  %87 = load i32, ptr %86, align 8
  %88 = add i32 %87, 1
  store i32 %88, ptr %86, align 8
  br label %29, !llvm.loop !57

89:                                               ; preds = %82, %54
  call void @llvm.lifetime.end.p0(i64 16, ptr %8) #8
  %90 = load i32, ptr %9, align 4
  switch i32 %90, label %95 [
    i32 2, label %91
  ]

91:                                               ; preds = %89
  %92 = load ptr, ptr %6, align 8
  %93 = load ptr, ptr %5, align 8
  %94 = call zeroext i1 @query_tree_walker_impl(ptr noundef %92, ptr noundef @isQueryUsingTempRelation_walker, ptr noundef %93, i32 noundef 4)
  store i1 %94, ptr %3, align 1
  store i32 1, ptr %9, align 4
  br label %95

95:                                               ; preds = %91, %89
  call void @llvm.lifetime.end.p0(i64 8, ptr %7) #8
  call void @llvm.lifetime.end.p0(i64 8, ptr %6) #8
  br label %100

96:                                               ; preds = %16
  %97 = load ptr, ptr %4, align 8
  %98 = load ptr, ptr %5, align 8
  %99 = call zeroext i1 @expression_tree_walker_impl(ptr noundef %97, ptr noundef @isQueryUsingTempRelation_walker, ptr noundef %98)
  store i1 %99, ptr %3, align 1
  br label %100

100:                                              ; preds = %96, %95, %15
  %101 = load i1, ptr %3, align 1
  ret i1 %101
}