; Function Attrs: nounwind uwtable
define internal zeroext i1 @isQueryUsingTempRelation_walker(ptr noundef %0, ptr noundef %1) #0 {
  %3 = icmp eq ptr %0, null
  br i1 %3, label %.loopexit, label %4

4:                                                ; preds = %2
  %5 = load i32, ptr %0, align 4
  %6 = icmp eq i32 %5, 67
  br i1 %6, label %7, label %33

7:                                                ; preds = %4
  %8 = getelementptr inbounds nuw i8, ptr %0, i64 64
  %9 = load ptr, ptr %8, align 8
  %.not = icmp eq ptr %9, null
  br i1 %.not, label %.critedge32, label %.lr.ph

.lr.ph:                                           ; preds = %7
  %10 = getelementptr inbounds nuw i8, ptr %9, i64 4
  %11 = getelementptr inbounds nuw i8, ptr %9, i64 16
  %12 = load i32, ptr %10, align 4
  %13 = icmp sgt i32 %12, 0
  br i1 %13, label %.lr.ph38, label %.critedge32

.lr.ph38:                                         ; preds = %.lr.ph, %.critedge
  %14 = phi i32 [ %29, %.critedge ], [ %12, %.lr.ph ]
  %indvars.iv = phi i64 [ %indvars.iv.next, %.critedge ], [ 0, %.lr.ph ]
  %15 = load ptr, ptr %11, align 8
  %16 = getelementptr inbounds nuw %union.ListCell, ptr %15, i64 %indvars.iv
  %17 = load ptr, ptr %16, align 8
  %18 = getelementptr inbounds nuw i8, ptr %17, i64 24
  %19 = load i32, ptr %18, align 8
  %20 = icmp eq i32 %19, 0
  br i1 %20, label %21, label %.critedge

21:                                               ; preds = %.lr.ph38
  %22 = getelementptr inbounds nuw i8, ptr %17, i64 28
  %23 = load i32, ptr %22, align 4
  %24 = tail call ptr @table_open(i32 noundef %23, i32 noundef 1) #11
  %25 = getelementptr inbounds nuw i8, ptr %24, i64 56
  %26 = load ptr, ptr %25, align 8
  %27 = getelementptr inbounds nuw i8, ptr %26, i64 114
  %28 = load i8, ptr %27, align 2
  tail call void @table_close(ptr noundef %24, i32 noundef 1) #11
  %.not30 = icmp eq i8 %28, 116
  br i1 %.not30, label %.loopexit, label %..critedge_crit_edge

..critedge_crit_edge:                             ; preds = %21
  %.pre = load i32, ptr %10, align 4
  br label %.critedge

.critedge:                                        ; preds = %..critedge_crit_edge, %.lr.ph38
  %29 = phi i32 [ %.pre, %..critedge_crit_edge ], [ %14, %.lr.ph38 ]
  %indvars.iv.next = add nuw nsw i64 %indvars.iv, 1
  %30 = sext i32 %29 to i64
  %31 = icmp slt i64 %indvars.iv.next, %30
  br i1 %31, label %.lr.ph38, label %.critedge32

.critedge32:                                      ; preds = %.critedge, %.lr.ph, %7
  %32 = tail call zeroext i1 @query_tree_walker_impl(ptr noundef nonnull %0, ptr noundef nonnull @isQueryUsingTempRelation_walker, ptr noundef %1, i32 noundef 4) #11
  br label %.loopexit

33:                                               ; preds = %4
  %34 = tail call zeroext i1 @expression_tree_walker_impl(ptr noundef nonnull %0, ptr noundef nonnull @isQueryUsingTempRelation_walker, ptr noundef %1) #11
  br label %.loopexit

.loopexit:                                        ; preds = %21, %.critedge32, %2, %33
  %.0 = phi i1 [ %34, %33 ], [ false, %2 ], [ %32, %.critedge32 ], [ true, %21 ]
  ret i1 %.0
}